target datalayout = "e-m:e-p270:32:32-p271:32:32-p272:64:64-i64:64-i128:128-f80:128-n8:16:32:64-S128"
target triple = "x86_64-pc-linux-gnu"

%struct.H5FA_dblock_t = type { %struct.H5C_cache_entry_t, ptr, ptr, ptr, ptr, i64, i64, i64, i64, i64, i64, i64 }
%struct.H5C_cache_entry_t = type { ptr, i64, i64, ptr, i8, ptr, i8, i8, i8, i8, i32, i8, i8, i8, i8, i8, i32, ptr, i32, i32, i32, i32, i32, i8, i8, ptr, ptr, ptr, ptr, ptr, ptr, i8, i32, i8, i64, ptr, i64, i64, i32, i8, i32, i32, i8, ptr, ptr, ptr }
%struct.H5FA_hdr_t = type { %struct.H5C_cache_entry_t, %struct.H5FA_create_t, i64, %struct.H5FA_stat_t, i64, i64, i64, ptr, i64, i8, i64, i64, ptr, i8, ptr, ptr }
%struct.H5FA_create_t = type { ptr, i8, i8, i64 }
%struct.H5FA_stat_t = type { i64, i64, i64 }
%struct.H5FA_class_t = type { i32, ptr, i64, ptr, ptr, ptr, ptr, ptr, ptr, ptr, ptr }

@H5_chunk_elmts_blk_free_list = global { i8, [3 x i8], i32, i32, [4 x i8], i64, ptr, ptr } { i8 0, [3 x i8] zeroinitializer, i32 0, i32 0, [4 x i8] zeroinitializer, i64 0, ptr @.str, ptr null }, align 8
@H5_fa_page_init_blk_free_list = global { i8, [3 x i8], i32, i32, [4 x i8], i64, ptr, ptr } { i8 0, [3 x i8] zeroinitializer, i32 0, i32 0, [4 x i8] zeroinitializer, i64 0, ptr @.str.1, ptr null }, align 8
@H5FA_init_g = external global i8, align 1
@H5_libterm_g = external global i8, align 1
@.str.2 = private unnamed_addr constant [104 x i8] c"generated/home/dtcxzyw/WorkSpace/Projects/compilers/llvm-opt-benchmark/bench/hdf5/hdf5/src/H5FAdblock.c\00", align 1
@__func__.H5FA__dblock_alloc = private unnamed_addr constant [19 x i8] c"H5FA__dblock_alloc\00", align 1
@H5E_FARRAY_g = external global i64, align 8
@H5E_CANTALLOC_g = external global i64, align 8
@.str.3 = private unnamed_addr constant [52 x i8] c"memory allocation failed for fixed array data block\00", align 1
@H5E_CANTINC_g = external global i64, align 8
@.str.4 = private unnamed_addr constant [55 x i8] c"can't increment reference count on shared array header\00", align 1
@.str.5 = private unnamed_addr constant [47 x i8] c"memory allocation failed for page init bitmask\00", align 1
@.str.6 = private unnamed_addr constant [55 x i8] c"memory allocation failed for data block element buffer\00", align 1
@H5E_CANTFREE_g = external global i64, align 8
@.str.7 = private unnamed_addr constant [41 x i8] c"unable to destroy fixed array data block\00", align 1
@H5_H5FA_dblock_t_reg_free_list = internal global { i8, [3 x i8], i32, i32, [4 x i8], ptr, i64, ptr } { i8 0, [3 x i8] zeroinitializer, i32 0, i32 0, [4 x i8] zeroinitializer, ptr @.str.18, i64 336, ptr null }, align 8

; Function Attrs: nounwind uwtable
define ptr @H5FA__dblock_alloc(ptr noundef %0) #0 {
  %2 = alloca ptr, align 8
  %3 = alloca ptr, align 8
  %4 = alloca ptr, align 8
  %5 = alloca ptr, align 8
  %6 = alloca i8, align 1
  %7 = alloca i64, align 8
  %8 = alloca i32, align 4
  %9 = alloca i64, align 8
  store ptr %0, ptr %3, align 8, !tbaa !3
  call void @llvm.lifetime.start.p0(i64 8, ptr %4) #4
  store ptr null, ptr %4, align 8, !tbaa !8
  call void @llvm.lifetime.start.p0(i64 8, ptr %5) #4
  store ptr null, ptr %5, align 8, !tbaa !8
  call void @llvm.lifetime.start.p0(i64 1, ptr %6) #4
  store i8 0, ptr %6, align 1, !tbaa !10
  %10 = load i8, ptr @H5FA_init_g, align 1, !tbaa !10, !range !12, !noundef !13
  %11 = trunc i8 %10 to i1
  br i1 %11, label %16, label %12

12:                                               ; preds = %1
  %13 = load i8, ptr @H5_libterm_g, align 1, !tbaa !10, !range !12, !noundef !13
  %14 = trunc i8 %13 to i1
  %15 = xor i1 %14, true
  br label %16

16:                                               ; preds = %12, %1
  %17 = phi i1 [ true, %1 ], [ %15, %12 ]
  %18 = xor i1 %17, true
  %19 = xor i1 %18, true
  %20 = zext i1 %19 to i32
  %21 = sext i32 %20 to i64
  %22 = call i64 @llvm.expect.i64(i64 %21, i64 1)
  %23 = icmp ne i64 %22, 0
  br i1 %23, label %24, label %256

24:                                               ; preds = %16
  %25 = call noalias ptr @H5FL_reg_calloc(ptr noundef @H5_H5FA_dblock_t_reg_free_list)
  store ptr %25, ptr %4, align 8, !tbaa !8
  %26 = icmp eq ptr null, %25
  br i1 %26, label %27, label %46

27:                                               ; preds = %24
  br label %28

28:                                               ; preds = %27
  br label %29

29:                                               ; preds = %28
  br label %30

30:                                               ; preds = %29
  %31 = load i64, ptr @H5E_FARRAY_g, align 8, !tbaa !14
  %32 = load i64, ptr @H5E_CANTALLOC_g, align 8, !tbaa !14
  %33 = call i32 (ptr, ptr, i32, i64, i64, ptr, ...) @H5E_printf_stack(ptr noundef @.str.2, ptr noundef @__func__.H5FA__dblock_alloc, i32 noundef 101, i64 noundef %31, i64 noundef %32, ptr noundef @.str.3)
  br label %34

34:                                               ; preds = %30
  br label %35

35:                                               ; preds = %34
  store i8 1, ptr %6, align 1, !tbaa !10
  %36 = load i8, ptr %6, align 1, !tbaa !10, !range !12, !noundef !13
  %37 = trunc i8 %36 to i1
  %38 = zext i1 %37 to i8
  store i8 %38, ptr %6, align 1, !tbaa !10
  br label %39

39:                                               ; preds = %35
  br label %40

40:                                               ; preds = %39
  br label %41

41:                                               ; preds = %40
  store ptr null, ptr %5, align 8, !tbaa !8
  br label %228

42:                                               ; No predecessors!
  br label %43

43:                                               ; preds = %42
  br label %44

44:                                               ; preds = %43
  br label %45

45:                                               ; preds = %44
  br label %46

46:                                               ; preds = %45, %24
  %47 = load ptr, ptr %3, align 8, !tbaa !3
  %48 = call i32 @H5FA__hdr_incr(ptr noundef %47)
  %49 = icmp slt i32 %48, 0
  br i1 %49, label %50, label %69

50:                                               ; preds = %46
  br label %51

51:                                               ; preds = %50
  br label %52

52:                                               ; preds = %51
  br label %53

53:                                               ; preds = %52
  %54 = load i64, ptr @H5E_FARRAY_g, align 8, !tbaa !14
  %55 = load i64, ptr @H5E_CANTINC_g, align 8, !tbaa !14
  %56 = call i32 (ptr, ptr, i32, i64, i64, ptr, ...) @H5E_printf_stack(ptr noundef @.str.2, ptr noundef @__func__.H5FA__dblock_alloc, i32 noundef 105, i64 noundef %54, i64 noundef %55, ptr noundef @.str.4)
  br label %57

57:                                               ; preds = %53
  br label %58

58:                                               ; preds = %57
  store i8 1, ptr %6, align 1, !tbaa !10
  %59 = load i8, ptr %6, align 1, !tbaa !10, !range !12, !noundef !13
  %60 = trunc i8 %59 to i1
  %61 = zext i1 %60 to i8
  store i8 %61, ptr %6, align 1, !tbaa !10
  br label %62

62:                                               ; preds = %58
  br label %63

63:                                               ; preds = %62
  br label %64

64:                                               ; preds = %63
  store ptr null, ptr %5, align 8, !tbaa !8
  br label %228

65:                                               ; No predecessors!
  br label %66

66:                                               ; preds = %65
  br label %67

67:                                               ; preds = %66
  br label %68

68:                                               ; preds = %67
  br label %69

69:                                               ; preds = %68, %46
  %70 = load ptr, ptr %3, align 8, !tbaa !3
  %71 = load ptr, ptr %4, align 8, !tbaa !8
  %72 = getelementptr inbounds nuw %struct.H5FA_dblock_t, ptr %71, i32 0, i32 3
  store ptr %70, ptr %72, align 8, !tbaa !16
  %73 = load ptr, ptr %3, align 8, !tbaa !3
  %74 = getelementptr inbounds nuw %struct.H5FA_hdr_t, ptr %73, i32 0, i32 1
  %75 = getelementptr inbounds nuw %struct.H5FA_create_t, ptr %74, i32 0, i32 2
  %76 = load i8, ptr %75, align 1, !tbaa !28
  %77 = zext i8 %76 to i32
  %78 = zext i32 %77 to i64
  %79 = shl i64 1, %78
  %80 = load ptr, ptr %4, align 8, !tbaa !8
  %81 = getelementptr inbounds nuw %struct.H5FA_dblock_t, ptr %80, i32 0, i32 9
  store i64 %79, ptr %81, align 8, !tbaa !34
  %82 = load ptr, ptr %3, align 8, !tbaa !3
  %83 = getelementptr inbounds nuw %struct.H5FA_hdr_t, ptr %82, i32 0, i32 1
  %84 = getelementptr inbounds nuw %struct.H5FA_create_t, ptr %83, i32 0, i32 3
  %85 = load i64, ptr %84, align 8, !tbaa !35
  %86 = load ptr, ptr %4, align 8, !tbaa !8
  %87 = getelementptr inbounds nuw %struct.H5FA_dblock_t, ptr %86, i32 0, i32 9
  %88 = load i64, ptr %87, align 8, !tbaa !34
  %89 = icmp ugt i64 %85, %88
  br i1 %89, label %90, label %186

90:                                               ; preds = %69
  call void @llvm.lifetime.start.p0(i64 8, ptr %7) #4
  %91 = load ptr, ptr %3, align 8, !tbaa !3
  %92 = getelementptr inbounds nuw %struct.H5FA_hdr_t, ptr %91, i32 0, i32 1
  %93 = getelementptr inbounds nuw %struct.H5FA_create_t, ptr %92, i32 0, i32 3
  %94 = load i64, ptr %93, align 8, !tbaa !35
  %95 = load ptr, ptr %4, align 8, !tbaa !8
  %96 = getelementptr inbounds nuw %struct.H5FA_dblock_t, ptr %95, i32 0, i32 9
  %97 = load i64, ptr %96, align 8, !tbaa !34
  %98 = add i64 %94, %97
  %99 = sub i64 %98, 1
  %100 = load ptr, ptr %4, align 8, !tbaa !8
  %101 = getelementptr inbounds nuw %struct.H5FA_dblock_t, ptr %100, i32 0, i32 9
  %102 = load i64, ptr %101, align 8, !tbaa !34
  %103 = udiv i64 %99, %102
  store i64 %103, ptr %7, align 8, !tbaa !14
  br label %104

104:                                              ; preds = %90
  %105 = load i64, ptr %7, align 8, !tbaa !14
  %106 = load ptr, ptr %4, align 8, !tbaa !8
  %107 = getelementptr inbounds nuw %struct.H5FA_dblock_t, ptr %106, i32 0, i32 7
  store i64 %105, ptr %107, align 8, !tbaa !36
  br label %108

108:                                              ; preds = %104
  br label %109

109:                                              ; preds = %108
  %110 = load ptr, ptr %4, align 8, !tbaa !8
  %111 = getelementptr inbounds nuw %struct.H5FA_dblock_t, ptr %110, i32 0, i32 7
  %112 = load i64, ptr %111, align 8, !tbaa !36
  %113 = add i64 %112, 7
  %114 = udiv i64 %113, 8
  %115 = load ptr, ptr %4, align 8, !tbaa !8
  %116 = getelementptr inbounds nuw %struct.H5FA_dblock_t, ptr %115, i32 0, i32 11
  store i64 %114, ptr %116, align 8, !tbaa !37
  %117 = load ptr, ptr %4, align 8, !tbaa !8
  %118 = getelementptr inbounds nuw %struct.H5FA_dblock_t, ptr %117, i32 0, i32 11
  %119 = load i64, ptr %118, align 8, !tbaa !37
  %120 = call noalias ptr @H5FL_blk_calloc(ptr noundef @H5_fa_page_init_blk_free_list, i64 noundef %119)
  %121 = load ptr, ptr %4, align 8, !tbaa !8
  %122 = getelementptr inbounds nuw %struct.H5FA_dblock_t, ptr %121, i32 0, i32 1
  store ptr %120, ptr %122, align 8, !tbaa !38
  %123 = icmp eq ptr null, %120
  br i1 %123, label %124, label %143

124:                                              ; preds = %109
  br label %125

125:                                              ; preds = %124
  br label %126

126:                                              ; preds = %125
  br label %127

127:                                              ; preds = %126
  %128 = load i64, ptr @H5E_FARRAY_g, align 8, !tbaa !14
  %129 = load i64, ptr @H5E_CANTALLOC_g, align 8, !tbaa !14
  %130 = call i32 (ptr, ptr, i32, i64, i64, ptr, ...) @H5E_printf_stack(ptr noundef @.str.2, ptr noundef @__func__.H5FA__dblock_alloc, i32 noundef 128, i64 noundef %128, i64 noundef %129, ptr noundef @.str.5)
  br label %131

131:                                              ; preds = %127
  br label %132

132:                                              ; preds = %131
  store i8 1, ptr %6, align 1, !tbaa !10
  %133 = load i8, ptr %6, align 1, !tbaa !10, !range !12, !noundef !13
  %134 = trunc i8 %133 to i1
  %135 = zext i1 %134 to i8
  store i8 %135, ptr %6, align 1, !tbaa !10
  br label %136

136:                                              ; preds = %132
  br label %137

137:                                              ; preds = %136
  br label %138

138:                                              ; preds = %137
  store ptr null, ptr %5, align 8, !tbaa !8
  store i32 10, ptr %8, align 4
  br label %183

139:                                              ; No predecessors!
  br label %140

140:                                              ; preds = %139
  br label %141

141:                                              ; preds = %140
  br label %142

142:                                              ; preds = %141
  br label %143

143:                                              ; preds = %142, %109
  %144 = load ptr, ptr %4, align 8, !tbaa !8
  %145 = getelementptr inbounds nuw %struct.H5FA_dblock_t, ptr %144, i32 0, i32 9
  %146 = load i64, ptr %145, align 8, !tbaa !34
  %147 = load ptr, ptr %3, align 8, !tbaa !3
  %148 = getelementptr inbounds nuw %struct.H5FA_hdr_t, ptr %147, i32 0, i32 1
  %149 = getelementptr inbounds nuw %struct.H5FA_create_t, ptr %148, i32 0, i32 1
  %150 = load i8, ptr %149, align 8, !tbaa !39
  %151 = zext i8 %150 to i64
  %152 = mul i64 %146, %151
  %153 = add i64 %152, 4
  %154 = load ptr, ptr %4, align 8, !tbaa !8
  %155 = getelementptr inbounds nuw %struct.H5FA_dblock_t, ptr %154, i32 0, i32 10
  store i64 %153, ptr %155, align 8, !tbaa !40
  %156 = load ptr, ptr %3, align 8, !tbaa !3
  %157 = getelementptr inbounds nuw %struct.H5FA_hdr_t, ptr %156, i32 0, i32 1
  %158 = getelementptr inbounds nuw %struct.H5FA_create_t, ptr %157, i32 0, i32 3
  %159 = load i64, ptr %158, align 8, !tbaa !35
  %160 = load ptr, ptr %4, align 8, !tbaa !8
  %161 = getelementptr inbounds nuw %struct.H5FA_dblock_t, ptr %160, i32 0, i32 9
  %162 = load i64, ptr %161, align 8, !tbaa !34
  %163 = urem i64 %159, %162
  %164 = icmp eq i64 0, %163
  br i1 %164, label %165, label %171

165:                                              ; preds = %143
  %166 = load ptr, ptr %4, align 8, !tbaa !8
  %167 = getelementptr inbounds nuw %struct.H5FA_dblock_t, ptr %166, i32 0, i32 9
  %168 = load i64, ptr %167, align 8, !tbaa !34
  %169 = load ptr, ptr %4, align 8, !tbaa !8
  %170 = getelementptr inbounds nuw %struct.H5FA_dblock_t, ptr %169, i32 0, i32 8
  store i64 %168, ptr %170, align 8, !tbaa !41
  br label %182

171:                                              ; preds = %143
  %172 = load ptr, ptr %3, align 8, !tbaa !3
  %173 = getelementptr inbounds nuw %struct.H5FA_hdr_t, ptr %172, i32 0, i32 1
  %174 = getelementptr inbounds nuw %struct.H5FA_create_t, ptr %173, i32 0, i32 3
  %175 = load i64, ptr %174, align 8, !tbaa !35
  %176 = load ptr, ptr %4, align 8, !tbaa !8
  %177 = getelementptr inbounds nuw %struct.H5FA_dblock_t, ptr %176, i32 0, i32 9
  %178 = load i64, ptr %177, align 8, !tbaa !34
  %179 = urem i64 %175, %178
  %180 = load ptr, ptr %4, align 8, !tbaa !8
  %181 = getelementptr inbounds nuw %struct.H5FA_dblock_t, ptr %180, i32 0, i32 8
  store i64 %179, ptr %181, align 8, !tbaa !41
  br label %182

182:                                              ; preds = %171, %165
  store i32 0, ptr %8, align 4
  br label %183

183:                                              ; preds = %138, %182
  call void @llvm.lifetime.end.p0(i64 8, ptr %7) #4
  %184 = load i32, ptr %8, align 4
  switch i32 %184, label %258 [
    i32 0, label %185
    i32 10, label %228
  ]

185:                                              ; preds = %183
  br label %226

186:                                              ; preds = %69
  call void @llvm.lifetime.start.p0(i64 8, ptr %9) #4
  %187 = load ptr, ptr %3, align 8, !tbaa !3
  %188 = getelementptr inbounds nuw %struct.H5FA_hdr_t, ptr %187, i32 0, i32 1
  %189 = getelementptr inbounds nuw %struct.H5FA_create_t, ptr %188, i32 0, i32 3
  %190 = load i64, ptr %189, align 8, !tbaa !35
  %191 = load ptr, ptr %3, align 8, !tbaa !3
  %192 = getelementptr inbounds nuw %struct.H5FA_hdr_t, ptr %191, i32 0, i32 1
  %193 = getelementptr inbounds nuw %struct.H5FA_create_t, ptr %192, i32 0, i32 0
  %194 = load ptr, ptr %193, align 8, !tbaa !42
  %195 = getelementptr inbounds nuw %struct.H5FA_class_t, ptr %194, i32 0, i32 2
  %196 = load i64, ptr %195, align 8, !tbaa !43
  %197 = mul i64 %190, %196
  store i64 %197, ptr %9, align 8, !tbaa !14
  %198 = load i64, ptr %9, align 8, !tbaa !14
  %199 = call noalias ptr @H5FL_blk_malloc(ptr noundef @H5_chunk_elmts_blk_free_list, i64 noundef %198)
  %200 = load ptr, ptr %4, align 8, !tbaa !8
  %201 = getelementptr inbounds nuw %struct.H5FA_dblock_t, ptr %200, i32 0, i32 2
  store ptr %199, ptr %201, align 8, !tbaa !45
  %202 = icmp eq ptr null, %199
  br i1 %202, label %203, label %222

203:                                              ; preds = %186
  br label %204

204:                                              ; preds = %203
  br label %205

205:                                              ; preds = %204
  br label %206

206:                                              ; preds = %205
  %207 = load i64, ptr @H5E_FARRAY_g, align 8, !tbaa !14
  %208 = load i64, ptr @H5E_CANTALLOC_g, align 8, !tbaa !14
  %209 = call i32 (ptr, ptr, i32, i64, i64, ptr, ...) @H5E_printf_stack(ptr noundef @.str.2, ptr noundef @__func__.H5FA__dblock_alloc, i32 noundef 146, i64 noundef %207, i64 noundef %208, ptr noundef @.str.6)
  br label %210

210:                                              ; preds = %206
  br label %211

211:                                              ; preds = %210
  store i8 1, ptr %6, align 1, !tbaa !10
  %212 = load i8, ptr %6, align 1, !tbaa !10, !range !12, !noundef !13
  %213 = trunc i8 %212 to i1
  %214 = zext i1 %213 to i8
  store i8 %214, ptr %6, align 1, !tbaa !10
  br label %215

215:                                              ; preds = %211
  br label %216

216:                                              ; preds = %215
  br label %217

217:                                              ; preds = %216
  store ptr null, ptr %5, align 8, !tbaa !8
  store i32 10, ptr %8, align 4
  br label %223

218:                                              ; No predecessors!
  br label %219

219:                                              ; preds = %218
  br label %220

220:                                              ; preds = %219
  br label %221

221:                                              ; preds = %220
  br label %222

222:                                              ; preds = %221, %186
  store i32 0, ptr %8, align 4
  br label %223

223:                                              ; preds = %217, %222
  call void @llvm.lifetime.end.p0(i64 8, ptr %9) #4
  %224 = load i32, ptr %8, align 4
  switch i32 %224, label %258 [
    i32 0, label %225
    i32 10, label %228
  ]

225:                                              ; preds = %223
  br label %226

226:                                              ; preds = %225, %185
  %227 = load ptr, ptr %4, align 8, !tbaa !8
  store ptr %227, ptr %5, align 8, !tbaa !8
  br label %228

228:                                              ; preds = %226, %223, %183, %64, %41
  %229 = load ptr, ptr %5, align 8, !tbaa !8
  %230 = icmp ne ptr %229, null
  br i1 %230, label %255, label %231

231:                                              ; preds = %228
  %232 = load ptr, ptr %4, align 8, !tbaa !8
  %233 = icmp ne ptr %232, null
  br i1 %233, label %234, label %254

234:                                              ; preds = %231
  %235 = load ptr, ptr %4, align 8, !tbaa !8
  %236 = call i32 @H5FA__dblock_dest(ptr noundef %235)
  %237 = icmp slt i32 %236, 0
  br i1 %237, label %238, label %254

238:                                              ; preds = %234
  br label %239

239:                                              ; preds = %238
  br label %240

240:                                              ; preds = %239
  br label %241

241:                                              ; preds = %240
  %242 = load i64, ptr @H5E_FARRAY_g, align 8, !tbaa !14
  %243 = load i64, ptr @H5E_CANTFREE_g, align 8, !tbaa !14
  %244 = call i32 (ptr, ptr, i32, i64, i64, ptr, ...) @H5E_printf_stack(ptr noundef @.str.2, ptr noundef @__func__.H5FA__dblock_alloc, i32 noundef 155, i64 noundef %242, i64 noundef %243, ptr noundef @.str.7)
  br label %245

245:                                              ; preds = %241
  br label %246

246:                                              ; preds = %245
  store i8 1, ptr %6, align 1, !tbaa !10
  %247 = load i8, ptr %6, align 1, !tbaa !10, !range !12, !noundef !13
  %248 = trunc i8 %247 to i1
  %249 = zext i1 %248 to i8
  store i8 %249, ptr %6, align 1, !tbaa !10
  br label %250

250:                                              ; preds = %246
  br label %251

251:                                              ; preds = %250
  store ptr null, ptr %5, align 8, !tbaa !8
  br label %252

252:                                              ; preds = %251
  br label %253

253:                                              ; preds = %252
  br label %254

254:                                              ; preds = %253, %234, %231
  br label %255

255:                                              ; preds = %254, %228
  br label %256

256:                                              ; preds = %255, %16
  %257 = load ptr, ptr %5, align 8, !tbaa !8
  store ptr %257, ptr %2, align 8
  store i32 1, ptr %8, align 4
  br label %258

258:                                              ; preds = %256, %223, %183
  call void @llvm.lifetime.end.p0(i64 1, ptr %6) #4
  call void @llvm.lifetime.end.p0(i64 8, ptr %5) #4
  call void @llvm.lifetime.end.p0(i64 8, ptr %4) #4
  %259 = load ptr, ptr %2, align 8
  ret ptr %259
}