; Function Attrs: nounwind uwtable
define ptr @H5FA__dblock_alloc(ptr noundef %0) local_unnamed_addr #0 {
  %2 = load i8, ptr @H5FA_init_g, align 1, !tbaa !3, !range !7, !noundef !8
  %3 = trunc nuw i8 %2 to i1
  %4 = load i8, ptr @H5_libterm_g, align 1, !range !7
  %5 = trunc nuw i8 %4 to i1
  %6 = xor i1 %5, true
  %7 = select i1 %3, i1 true, i1 %6
  br i1 %7, label %8, label %.thread56, !prof !9

8:                                                ; preds = %1
  %9 = tail call noalias ptr @H5FL_reg_calloc(ptr noundef nonnull @H5_H5FA_dblock_t_reg_free_list) #3
  %10 = icmp eq ptr %9, null
  br i1 %10, label %11, label %15

11:                                               ; preds = %8
  %12 = load i64, ptr @H5E_FARRAY_g, align 8, !tbaa !10
  %13 = load i64, ptr @H5E_CANTALLOC_g, align 8, !tbaa !10
  %14 = tail call i32 (ptr, ptr, i32, i64, i64, ptr, ...) @H5E_printf_stack(ptr noundef nonnull @.str.2, ptr noundef nonnull @__func__.H5FA__dblock_alloc, i32 noundef 101, i64 noundef %12, i64 noundef %13, ptr noundef nonnull @.str.3) #3
  br label %.thread56

15:                                               ; preds = %8
  %16 = tail call i32 @H5FA__hdr_incr(ptr noundef %0) #3
  %17 = icmp slt i32 %16, 0
  br i1 %17, label %18, label %22

18:                                               ; preds = %15
  %19 = load i64, ptr @H5E_FARRAY_g, align 8, !tbaa !10
  %20 = load i64, ptr @H5E_CANTINC_g, align 8, !tbaa !10
  %21 = tail call i32 (ptr, ptr, i32, i64, i64, ptr, ...) @H5E_printf_stack(ptr noundef nonnull @.str.2, ptr noundef nonnull @__func__.H5FA__dblock_alloc, i32 noundef 105, i64 noundef %19, i64 noundef %20, ptr noundef nonnull @.str.4) #3
  br label %74

22:                                               ; preds = %15
  %23 = getelementptr inbounds nuw i8, ptr %9, i64 264
  store ptr %0, ptr %23, align 8, !tbaa !12
  %24 = getelementptr inbounds nuw i8, ptr %0, i64 257
  %25 = load i8, ptr %24, align 1, !tbaa !26
  %26 = zext nneg i8 %25 to i64
  %27 = shl nuw i64 1, %26
  %28 = getelementptr inbounds nuw i8, ptr %9, i64 312
  store i64 %27, ptr %28, align 8, !tbaa !32
  %29 = getelementptr inbounds nuw i8, ptr %0, i64 264
  %30 = load i64, ptr %29, align 8, !tbaa !33
  %31 = icmp ugt i64 %30, %27
  br i1 %31, label %32, label %61

32:                                               ; preds = %22
  %33 = add i64 %27, -1
  %34 = add i64 %33, %30
  %35 = lshr i64 %34, %26
  %36 = getelementptr inbounds nuw i8, ptr %9, i64 296
  store i64 %35, ptr %36, align 8, !tbaa !34
  %37 = add i64 %35, 7
  %38 = lshr i64 %37, 3
  %39 = getelementptr inbounds nuw i8, ptr %9, i64 328
  store i64 %38, ptr %39, align 8, !tbaa !35
  %40 = tail call noalias ptr @H5FL_blk_calloc(ptr noundef nonnull @H5_fa_page_init_blk_free_list, i64 noundef %38) #3
  %41 = getelementptr inbounds nuw i8, ptr %9, i64 248
  store ptr %40, ptr %41, align 8, !tbaa !36
  %42 = icmp eq ptr %40, null
  br i1 %42, label %57, label %43

43:                                               ; preds = %32
  %44 = getelementptr inbounds nuw i8, ptr %0, i64 256
  %45 = load i8, ptr %44, align 8, !tbaa !37
  %46 = zext i8 %45 to i64
  %47 = shl i64 %46, %26
  %48 = add i64 %47, 4
  %49 = getelementptr inbounds nuw i8, ptr %9, i64 320
  store i64 %48, ptr %49, align 8, !tbaa !38
  %50 = load i64, ptr %29, align 8, !tbaa !33
  %51 = add i64 %27, -1
  %52 = and i64 %50, %51
  %53 = icmp eq i64 %52, 0
  %54 = getelementptr inbounds nuw i8, ptr %9, i64 304
  br i1 %53, label %55, label %56

55:                                               ; preds = %43
  store i64 %27, ptr %54, align 8, !tbaa !39
  br label %.thread56

56:                                               ; preds = %43
  store i64 %52, ptr %54, align 8, !tbaa !39
  br label %.thread56

57:                                               ; preds = %32
  %58 = load i64, ptr @H5E_FARRAY_g, align 8, !tbaa !10
  %59 = load i64, ptr @H5E_CANTALLOC_g, align 8, !tbaa !10
  %60 = tail call i32 (ptr, ptr, i32, i64, i64, ptr, ...) @H5E_printf_stack(ptr noundef nonnull @.str.2, ptr noundef nonnull @__func__.H5FA__dblock_alloc, i32 noundef 128, i64 noundef %58, i64 noundef %59, ptr noundef nonnull @.str.5) #3
  br label %74

61:                                               ; preds = %22
  %62 = getelementptr inbounds nuw i8, ptr %0, i64 248
  %63 = load ptr, ptr %62, align 8, !tbaa !40
  %64 = getelementptr inbounds nuw i8, ptr %63, i64 16
  %65 = load i64, ptr %64, align 8, !tbaa !41
  %66 = mul i64 %65, %30
  %67 = tail call noalias ptr @H5FL_blk_malloc(ptr noundef nonnull @H5_chunk_elmts_blk_free_list, i64 noundef %66) #3
  %68 = getelementptr inbounds nuw i8, ptr %9, i64 256
  store ptr %67, ptr %68, align 8, !tbaa !43
  %69 = icmp eq ptr %67, null
  br i1 %69, label %70, label %.thread56

70:                                               ; preds = %61
  %71 = load i64, ptr @H5E_FARRAY_g, align 8, !tbaa !10
  %72 = load i64, ptr @H5E_CANTALLOC_g, align 8, !tbaa !10
  %73 = tail call i32 (ptr, ptr, i32, i64, i64, ptr, ...) @H5E_printf_stack(ptr noundef nonnull @.str.2, ptr noundef nonnull @__func__.H5FA__dblock_alloc, i32 noundef 146, i64 noundef %71, i64 noundef %72, ptr noundef nonnull @.str.6) #3
  br label %74

74:                                               ; preds = %18, %57, %70
  %75 = tail call i32 @H5FA__dblock_dest(ptr noundef nonnull %9)
  %76 = icmp slt i32 %75, 0
  br i1 %76, label %77, label %.thread56

77:                                               ; preds = %74
  %78 = load i64, ptr @H5E_FARRAY_g, align 8, !tbaa !10
  %79 = load i64, ptr @H5E_CANTFREE_g, align 8, !tbaa !10
  %80 = tail call i32 (ptr, ptr, i32, i64, i64, ptr, ...) @H5E_printf_stack(ptr noundef nonnull @.str.2, ptr noundef nonnull @__func__.H5FA__dblock_alloc, i32 noundef 155, i64 noundef %78, i64 noundef %79, ptr noundef nonnull @.str.7) #3
  br label %.thread56

.thread56:                                        ; preds = %61, %55, %56, %11, %1, %74, %77
  %.0 = phi ptr [ null, %77 ], [ null, %74 ], [ null, %1 ], [ null, %11 ], [ %9, %56 ], [ %9, %55 ], [ %9, %61 ]
  ret ptr %.0
}